target datalayout = "e-m:e-p270:32:32-p271:32:32-p272:64:64-i64:64-i128:128-f80:128-n8:16:32:64-S128"
target triple = "x86_64-unknown-linux-gnu"

%struct.grpc_transport_one_way_stats = type { i64, i64, i64 }

; Function Attrs: mustprogress nounwind uwtable
define internal void @_ZL10move64bitsPmS_(ptr noundef %from, ptr noundef %to) #5 {
entry:
  %from.addr = alloca ptr, align 8
  %to.addr = alloca ptr, align 8
  store ptr %from, ptr %from.addr, align 8
  store ptr %to, ptr %to.addr, align 8
  %0 = load ptr, ptr %from.addr, align 8
  %1 = load i64, ptr %0, align 8
  %2 = load ptr, ptr %to.addr, align 8
  %3 = load i64, ptr %2, align 8
  %add = add i64 %3, %1
  store i64 %add, ptr %2, align 8
  %4 = load ptr, ptr %from.addr, align 8
  store i64 0, ptr %4, align 8
  ret void
}

; Function Attrs: mustprogress uwtable
define void @_Z33grpc_transport_move_one_way_statsP28grpc_transport_one_way_statsS0_(ptr noundef %from, ptr noundef %to) #4 {
entry:
  %from.addr = alloca ptr, align 8
  %to.addr = alloca ptr, align 8
  store ptr %from, ptr %from.addr, align 8
  store ptr %to, ptr %to.addr, align 8
  %0 = load ptr, ptr %from.addr, align 8
  %framing_bytes = getelementptr inbounds %struct.grpc_transport_one_way_stats, ptr %0, i32 0, i32 0
  %1 = load ptr, ptr %to.addr, align 8
  %framing_bytes1 = getelementptr inbounds %struct.grpc_transport_one_way_stats, ptr %1, i32 0, i32 0
  call void @_ZL10move64bitsPmS_(ptr noundef %framing_bytes, ptr noundef %framing_bytes1)
  %2 = load ptr, ptr %from.addr, align 8
  %data_bytes = getelementptr inbounds %struct.grpc_transport_one_way_stats, ptr %2, i32 0, i32 1
  %3 = load ptr, ptr %to.addr, align 8
  %data_bytes2 = getelementptr inbounds %struct.grpc_transport_one_way_stats, ptr %3, i32 0, i32 1
  call void @_ZL10move64bitsPmS_(ptr noundef %data_bytes, ptr noundef %data_bytes2)
  %4 = load ptr, ptr %from.addr, align 8
  %header_bytes = getelementptr inbounds %struct.grpc_transport_one_way_stats, ptr %4, i32 0, i32 2
  %5 = load ptr, ptr %to.addr, align 8
  %header_bytes3 = getelementptr inbounds %struct.grpc_transport_one_way_stats, ptr %5, i32 0, i32 2
  call void @_ZL10move64bitsPmS_(ptr noundef %header_bytes, ptr noundef %header_bytes3)
  ret void
}