; Function Attrs: mustprogress nofree norecurse nosync nounwind willreturn memory(argmem: readwrite) uwtable
define void @_Z33grpc_transport_move_one_way_statsP28grpc_transport_one_way_statsS0_(ptr nocapture noundef %from, ptr nocapture noundef %to) local_unnamed_addr #7 {
entry:
  %0 = load i64, ptr %from, align 8
  %1 = load i64, ptr %to, align 8
  %add.i = add i64 %1, %0
  store i64 %add.i, ptr %to, align 8
  store i64 0, ptr %from, align 8
  %data_bytes = getelementptr inbounds i8, ptr %from, i64 8
  %data_bytes2 = getelementptr inbounds i8, ptr %to, i64 8
  %2 = load i64, ptr %data_bytes, align 8
  %3 = load i64, ptr %data_bytes2, align 8
  %add.i5 = add i64 %3, %2
  store i64 %add.i5, ptr %data_bytes2, align 8
  store i64 0, ptr %data_bytes, align 8
  %header_bytes = getelementptr inbounds i8, ptr %from, i64 16
  %header_bytes3 = getelementptr inbounds i8, ptr %to, i64 16
  %4 = load i64, ptr %header_bytes, align 8
  %5 = load i64, ptr %header_bytes3, align 8
  %add.i6 = add i64 %5, %4
  store i64 %add.i6, ptr %header_bytes3, align 8
  store i64 0, ptr %header_bytes, align 8
  ret void
}